target datalayout = "e-m:e-p270:32:32-p271:32:32-p272:64:64-i64:64-i128:128-f80:128-n8:16:32:64-S128"
target triple = "x86_64-unknown-linux-gnu"

%"class.EA::StdC::DateTime" = type <{ i64, i32, [4 x i8] }>
%"class.EA::StdC::int128_t" = type { %"class.EA::StdC::int128_t_base" }
%"class.EA::StdC::int128_t_base" = type { i64, i64 }

; Function Attrs: mustprogress uwtable
define dso_local void @_ZNK2EA4StdC8DateTime14GetNanosecondsEv(ptr noalias sret(%"class.EA::StdC::int128_t") align 8 %agg.result, ptr noundef nonnull align 8 dereferenceable(12) %this) #0 align 2 {
entry:
  %result.ptr = alloca ptr, align 8
  %this.addr = alloca ptr, align 8
  %ref.tmp = alloca %"class.EA::StdC::int128_t", align 8
  %ref.tmp2 = alloca %"class.EA::StdC::int128_t", align 8
  %ref.tmp3 = alloca %"class.EA::StdC::int128_t", align 8
  %ref.tmp4 = alloca %"class.EA::StdC::int128_t", align 8
  store ptr %agg.result, ptr %result.ptr, align 8
  store ptr %this, ptr %this.addr, align 8
  %this1 = load ptr, ptr %this.addr, align 8
  %mnSeconds = getelementptr inbounds %"class.EA::StdC::DateTime", ptr %this1, i32 0, i32 0
  %0 = load i64, ptr %mnSeconds, align 8
  call void @_ZN2EA4StdC8int128_tC1El(ptr noundef nonnull align 8 dereferenceable(16) %ref.tmp2, i64 noundef %0)
  call void @_ZN2EA4StdC8int128_tC1Ei(ptr noundef nonnull align 8 dereferenceable(16) %ref.tmp3, i32 noundef 1000000000)
  call void @_ZN2EA4StdCmlERKNS0_8int128_tES3_(ptr sret(%"class.EA::StdC::int128_t") align 8 %ref.tmp, ptr noundef nonnull align 8 dereferenceable(16) %ref.tmp2, ptr noundef nonnull align 8 dereferenceable(16) %ref.tmp3)
  %mnNanosecond = getelementptr inbounds %"class.EA::StdC::DateTime", ptr %this1, i32 0, i32 1
  %1 = load i32, ptr %mnNanosecond, align 8
  call void @_ZN2EA4StdC8int128_tC1Ej(ptr noundef nonnull align 8 dereferenceable(16) %ref.tmp4, i32 noundef %1)
  call void @_ZN2EA4StdCplERKNS0_8int128_tES3_(ptr sret(%"class.EA::StdC::int128_t") align 8 %agg.result, ptr noundef nonnull align 8 dereferenceable(16) %ref.tmp, ptr noundef nonnull align 8 dereferenceable(16) %ref.tmp4)
  ret void
}