; Function Attrs: mustprogress uwtable
define dso_local void @_ZNK2EA4StdC8DateTime14GetNanosecondsEv(ptr noalias sret(%"class.EA::StdC::int128_t") align 8 %agg.result, ptr noundef nonnull readonly align 8 captures(none) dereferenceable(12) %this) local_unnamed_addr #0 align 2 {
entry:
  %ref.tmp = alloca %"class.EA::StdC::int128_t", align 8
  %ref.tmp2 = alloca %"class.EA::StdC::int128_t", align 8
  %ref.tmp3 = alloca %"class.EA::StdC::int128_t", align 8
  %ref.tmp4 = alloca %"class.EA::StdC::int128_t", align 8
  %0 = load i64, ptr %this, align 8
  call void @_ZN2EA4StdC8int128_tC1El(ptr noundef nonnull align 8 dereferenceable(16) %ref.tmp2, i64 noundef %0)
  call void @_ZN2EA4StdC8int128_tC1Ei(ptr noundef nonnull align 8 dereferenceable(16) %ref.tmp3, i32 noundef 1000000000)
  call void @_ZN2EA4StdCmlERKNS0_8int128_tES3_(ptr nonnull sret(%"class.EA::StdC::int128_t") align 8 %ref.tmp, ptr noundef nonnull align 8 dereferenceable(16) %ref.tmp2, ptr noundef nonnull align 8 dereferenceable(16) %ref.tmp3)
  %mnNanosecond = getelementptr inbounds nuw i8, ptr %this, i64 8
  %1 = load i32, ptr %mnNanosecond, align 8
  call void @_ZN2EA4StdC8int128_tC1Ej(ptr noundef nonnull align 8 dereferenceable(16) %ref.tmp4, i32 noundef %1)
  call void @_ZN2EA4StdCplERKNS0_8int128_tES3_(ptr sret(%"class.EA::StdC::int128_t") align 8 %agg.result, ptr noundef nonnull align 8 dereferenceable(16) %ref.tmp, ptr noundef nonnull align 8 dereferenceable(16) %ref.tmp4)
  ret void
}